target datalayout = "e-m:e-p270:32:32-p271:32:32-p272:64:64-i64:64-i128:128-f80:128-n8:16:32:64-S128"
target triple = "x86_64-pc-linux-gnu"

%struct.AVFilterContext = type { ptr, ptr, ptr, ptr, ptr, i32, ptr, ptr, i32, ptr, ptr, i32, i32, ptr, ptr, ptr, ptr, i32, ptr, i32, i32 }
%struct.XFadeContext = type { ptr, i32, i64, i64, ptr, i32, i32, i32, i64, i64, i64, i64, i32, [2 x i32], [2 x ptr], i32, [4 x i16], [4 x i16], ptr, ptr }
%struct.AVRational = type { i32, i32 }
%struct.AVFrame = type { [8 x ptr], [8 x i32], ptr, i32, i32, i32, i32, i32, %struct.AVRational, i64, i64, %struct.AVRational, i32, ptr, i32, i32, [8 x ptr], ptr, i32, ptr, i32, i32, i32, i32, i32, i32, i32, i64, ptr, i32, ptr, ptr, i64, i64, i64, i64, ptr, %struct.AVChannelLayout, i64 }
%struct.AVChannelLayout = type { i32, i32, %union.anon.1, ptr }
%union.anon.1 = type { i64 }

; Function Attrs: nounwind uwtable
define internal void @revealdown16_transition(ptr noundef %0, ptr noundef %1, ptr noundef %2, ptr noundef %3, float noundef %4, i32 noundef %5, i32 noundef %6, i32 noundef %7) #1 {
  %9 = alloca ptr, align 8
  %10 = alloca ptr, align 8
  %11 = alloca ptr, align 8
  %12 = alloca ptr, align 8
  %13 = alloca float, align 4
  %14 = alloca i32, align 4
  %15 = alloca i32, align 4
  %16 = alloca i32, align 4
  %17 = alloca ptr, align 8
  %18 = alloca i32, align 4
  %19 = alloca i32, align 4
  %20 = alloca i32, align 4
  %21 = alloca i32, align 4
  %22 = alloca i32, align 4
  %23 = alloca ptr, align 8
  %24 = alloca i32, align 4
  %25 = alloca i32, align 4
  %26 = alloca i32, align 4
  %27 = alloca ptr, align 8
  %28 = alloca ptr, align 8
  %29 = alloca i32, align 4
  store ptr %0, ptr %9, align 8, !tbaa !4
  store ptr %1, ptr %10, align 8, !tbaa !36
  store ptr %2, ptr %11, align 8, !tbaa !36
  store ptr %3, ptr %12, align 8, !tbaa !36
  store float %4, ptr %13, align 4, !tbaa !90
  store i32 %5, ptr %14, align 4, !tbaa !32
  store i32 %6, ptr %15, align 4, !tbaa !32
  store i32 %7, ptr %16, align 4, !tbaa !32
  call void @llvm.lifetime.start.p0(i64 8, ptr %17) #10
  %30 = load ptr, ptr %9, align 8, !tbaa !4
  %31 = getelementptr inbounds nuw %struct.AVFilterContext, ptr %30, i32 0, i32 9
  %32 = load ptr, ptr %31, align 8, !tbaa !9
  store ptr %32, ptr %17, align 8, !tbaa !22
  call void @llvm.lifetime.start.p0(i64 4, ptr %18) #10
  %33 = load ptr, ptr %12, align 8, !tbaa !36
  %34 = getelementptr inbounds nuw %struct.AVFrame, ptr %33, i32 0, i32 4
  %35 = load i32, ptr %34, align 4, !tbaa !95
  store i32 %35, ptr %18, align 4, !tbaa !32
  call void @llvm.lifetime.start.p0(i64 4, ptr %19) #10
  %36 = load ptr, ptr %12, align 8, !tbaa !36
  %37 = getelementptr inbounds nuw %struct.AVFrame, ptr %36, i32 0, i32 3
  %38 = load i32, ptr %37, align 8, !tbaa !92
  store i32 %38, ptr %19, align 4, !tbaa !32
  call void @llvm.lifetime.start.p0(i64 4, ptr %20) #10
  %39 = load float, ptr %13, align 4, !tbaa !90
  %40 = load i32, ptr %18, align 4, !tbaa !32
  %41 = sitofp i32 %40 to float
  %42 = fmul nsz float %39, %41
  %43 = fptosi float %42 to i32
  store i32 %43, ptr %20, align 4, !tbaa !32
  call void @llvm.lifetime.start.p0(i64 4, ptr %21) #10
  store i32 0, ptr %21, align 4, !tbaa !32
  br label %44

44:                                               ; preds = %170, %8
  %45 = load i32, ptr %21, align 4, !tbaa !32
  %46 = load ptr, ptr %17, align 8, !tbaa !22
  %47 = getelementptr inbounds nuw %struct.XFadeContext, ptr %46, i32 0, i32 5
  %48 = load i32, ptr %47, align 8, !tbaa !82
  %49 = icmp slt i32 %45, %48
  br i1 %49, label %51, label %50

50:                                               ; preds = %44
  store i32 2, ptr %22, align 4
  call void @llvm.lifetime.end.p0(i64 4, ptr %21) #10
  br label %173

51:                                               ; preds = %44
  call void @llvm.lifetime.start.p0(i64 8, ptr %23) #10
  %52 = load ptr, ptr %12, align 8, !tbaa !36
  %53 = getelementptr inbounds nuw %struct.AVFrame, ptr %52, i32 0, i32 0
  %54 = load i32, ptr %21, align 4, !tbaa !32
  %55 = sext i32 %54 to i64
  %56 = getelementptr inbounds [8 x ptr], ptr %53, i64 0, i64 %55
  %57 = load ptr, ptr %56, align 8, !tbaa !96
  %58 = load i32, ptr %14, align 4, !tbaa !32
  %59 = load ptr, ptr %12, align 8, !tbaa !36
  %60 = getelementptr inbounds nuw %struct.AVFrame, ptr %59, i32 0, i32 1
  %61 = load i32, ptr %21, align 4, !tbaa !32
  %62 = sext i32 %61 to i64
  %63 = getelementptr inbounds [8 x i32], ptr %60, i64 0, i64 %62
  %64 = load i32, ptr %63, align 4, !tbaa !32
  %65 = mul nsw i32 %58, %64
  %66 = sext i32 %65 to i64
  %67 = getelementptr inbounds i8, ptr %57, i64 %66
  store ptr %67, ptr %23, align 8, !tbaa !101
  call void @llvm.lifetime.start.p0(i64 4, ptr %24) #10
  %68 = load i32, ptr %14, align 4, !tbaa !32
  store i32 %68, ptr %24, align 4, !tbaa !32
  br label %69

69:                                               ; preds = %166, %51
  %70 = load i32, ptr %24, align 4, !tbaa !32
  %71 = load i32, ptr %15, align 4, !tbaa !32
  %72 = icmp slt i32 %70, %71
  br i1 %72, label %74, label %73

73:                                               ; preds = %69
  store i32 5, ptr %22, align 4
  call void @llvm.lifetime.end.p0(i64 4, ptr %24) #10
  br label %169

74:                                               ; preds = %69
  call void @llvm.lifetime.start.p0(i64 4, ptr %25) #10
  %75 = load i32, ptr %20, align 4, !tbaa !32
  %76 = load i32, ptr %24, align 4, !tbaa !32
  %77 = add nsw i32 %75, %76
  store i32 %77, ptr %25, align 4, !tbaa !32
  call void @llvm.lifetime.start.p0(i64 4, ptr %26) #10
  %78 = load i32, ptr %25, align 4, !tbaa !32
  %79 = load i32, ptr %18, align 4, !tbaa !32
  %80 = srem i32 %78, %79
  %81 = load i32, ptr %18, align 4, !tbaa !32
  %82 = load i32, ptr %25, align 4, !tbaa !32
  %83 = icmp slt i32 %82, 0
  %84 = zext i1 %83 to i32
  %85 = mul nsw i32 %81, %84
  %86 = add nsw i32 %80, %85
  store i32 %86, ptr %26, align 4, !tbaa !32
  call void @llvm.lifetime.start.p0(i64 8, ptr %27) #10
  %87 = load ptr, ptr %10, align 8, !tbaa !36
  %88 = getelementptr inbounds nuw %struct.AVFrame, ptr %87, i32 0, i32 0
  %89 = load i32, ptr %21, align 4, !tbaa !32
  %90 = sext i32 %89 to i64
  %91 = getelementptr inbounds [8 x ptr], ptr %88, i64 0, i64 %90
  %92 = load ptr, ptr %91, align 8, !tbaa !96
  %93 = load i32, ptr %26, align 4, !tbaa !32
  %94 = load ptr, ptr %10, align 8, !tbaa !36
  %95 = getelementptr inbounds nuw %struct.AVFrame, ptr %94, i32 0, i32 1
  %96 = load i32, ptr %21, align 4, !tbaa !32
  %97 = sext i32 %96 to i64
  %98 = getelementptr inbounds [8 x i32], ptr %95, i64 0, i64 %97
  %99 = load i32, ptr %98, align 4, !tbaa !32
  %100 = mul nsw i32 %93, %99
  %101 = sext i32 %100 to i64
  %102 = getelementptr inbounds i8, ptr %92, i64 %101
  store ptr %102, ptr %27, align 8, !tbaa !101
  call void @llvm.lifetime.start.p0(i64 8, ptr %28) #10
  %103 = load ptr, ptr %11, align 8, !tbaa !36
  %104 = getelementptr inbounds nuw %struct.AVFrame, ptr %103, i32 0, i32 0
  %105 = load i32, ptr %21, align 4, !tbaa !32
  %106 = sext i32 %105 to i64
  %107 = getelementptr inbounds [8 x ptr], ptr %104, i64 0, i64 %106
  %108 = load ptr, ptr %107, align 8, !tbaa !96
  %109 = load i32, ptr %24, align 4, !tbaa !32
  %110 = load ptr, ptr %11, align 8, !tbaa !36
  %111 = getelementptr inbounds nuw %struct.AVFrame, ptr %110, i32 0, i32 1
  %112 = load i32, ptr %21, align 4, !tbaa !32
  %113 = sext i32 %112 to i64
  %114 = getelementptr inbounds [8 x i32], ptr %111, i64 0, i64 %113
  %115 = load i32, ptr %114, align 4, !tbaa !32
  %116 = mul nsw i32 %109, %115
  %117 = sext i32 %116 to i64
  %118 = getelementptr inbounds i8, ptr %108, i64 %117
  store ptr %118, ptr %28, align 8, !tbaa !101
  call void @llvm.lifetime.start.p0(i64 4, ptr %29) #10
  store i32 0, ptr %29, align 4, !tbaa !32
  br label %119

119:                                              ; preds = %152, %74
  %120 = load i32, ptr %29, align 4, !tbaa !32
  %121 = load i32, ptr %19, align 4, !tbaa !32
  %122 = icmp slt i32 %120, %121
  br i1 %122, label %124, label %123

123:                                              ; preds = %119
  store i32 8, ptr %22, align 4
  call void @llvm.lifetime.end.p0(i64 4, ptr %29) #10
  br label %155

124:                                              ; preds = %119
  %125 = load i32, ptr %25, align 4, !tbaa !32
  %126 = icmp sge i32 %125, 0
  br i1 %126, label %127, label %138

127:                                              ; preds = %124
  %128 = load i32, ptr %25, align 4, !tbaa !32
  %129 = load i32, ptr %18, align 4, !tbaa !32
  %130 = icmp slt i32 %128, %129
  br i1 %130, label %131, label %138

131:                                              ; preds = %127
  %132 = load ptr, ptr %28, align 8, !tbaa !101
  %133 = load i32, ptr %29, align 4, !tbaa !32
  %134 = sext i32 %133 to i64
  %135 = getelementptr inbounds i16, ptr %132, i64 %134
  %136 = load i16, ptr %135, align 2, !tbaa !84
  %137 = zext i16 %136 to i32
  br label %145

138:                                              ; preds = %127, %124
  %139 = load ptr, ptr %27, align 8, !tbaa !101
  %140 = load i32, ptr %29, align 4, !tbaa !32
  %141 = sext i32 %140 to i64
  %142 = getelementptr inbounds i16, ptr %139, i64 %141
  %143 = load i16, ptr %142, align 2, !tbaa !84
  %144 = zext i16 %143 to i32
  br label %145

145:                                              ; preds = %138, %131
  %146 = phi i32 [ %137, %131 ], [ %144, %138 ]
  %147 = trunc i32 %146 to i16
  %148 = load ptr, ptr %23, align 8, !tbaa !101
  %149 = load i32, ptr %29, align 4, !tbaa !32
  %150 = sext i32 %149 to i64
  %151 = getelementptr inbounds i16, ptr %148, i64 %150
  store i16 %147, ptr %151, align 2, !tbaa !84
  br label %152

152:                                              ; preds = %145
  %153 = load i32, ptr %29, align 4, !tbaa !32
  %154 = add nsw i32 %153, 1
  store i32 %154, ptr %29, align 4, !tbaa !32
  br label %119, !llvm.loop !459

155:                                              ; preds = %123
  %156 = load ptr, ptr %12, align 8, !tbaa !36
  %157 = getelementptr inbounds nuw %struct.AVFrame, ptr %156, i32 0, i32 1
  %158 = load i32, ptr %21, align 4, !tbaa !32
  %159 = sext i32 %158 to i64
  %160 = getelementptr inbounds [8 x i32], ptr %157, i64 0, i64 %159
  %161 = load i32, ptr %160, align 4, !tbaa !32
  %162 = sdiv i32 %161, 2
  %163 = load ptr, ptr %23, align 8, !tbaa !101
  %164 = sext i32 %162 to i64
  %165 = getelementptr inbounds i16, ptr %163, i64 %164
  store ptr %165, ptr %23, align 8, !tbaa !101
  call void @llvm.lifetime.end.p0(i64 8, ptr %28) #10
  call void @llvm.lifetime.end.p0(i64 8, ptr %27) #10
  call void @llvm.lifetime.end.p0(i64 4, ptr %26) #10
  call void @llvm.lifetime.end.p0(i64 4, ptr %25) #10
  br label %166

166:                                              ; preds = %155
  %167 = load i32, ptr %24, align 4, !tbaa !32
  %168 = add nsw i32 %167, 1
  store i32 %168, ptr %24, align 4, !tbaa !32
  br label %69, !llvm.loop !460

169:                                              ; preds = %73
  call void @llvm.lifetime.end.p0(i64 8, ptr %23) #10
  br label %170

170:                                              ; preds = %169
  %171 = load i32, ptr %21, align 4, !tbaa !32
  %172 = add nsw i32 %171, 1
  store i32 %172, ptr %21, align 4, !tbaa !32
  br label %44, !llvm.loop !461

173:                                              ; preds = %50
  call void @llvm.lifetime.end.p0(i64 4, ptr %20) #10
  call void @llvm.lifetime.end.p0(i64 4, ptr %19) #10
  call void @llvm.lifetime.end.p0(i64 4, ptr %18) #10
  call void @llvm.lifetime.end.p0(i64 8, ptr %17) #10
  ret void
}