; Function Attrs: nofree norecurse nosync nounwind memory(readwrite, inaccessiblemem: none) uwtable
define internal void @revealdown16_transition(ptr noundef readonly captures(none) %0, ptr noundef readonly captures(none) %1, ptr noundef readonly captures(none) %2, ptr noundef readonly captures(none) %3, float noundef %4, i32 noundef %5, i32 noundef %6, i32 %7) #6 {
  %9 = getelementptr inbounds nuw i8, ptr %0, i64 72
  %10 = load ptr, ptr %9, align 8, !tbaa !4
  %11 = getelementptr inbounds nuw i8, ptr %3, i64 108
  %12 = load i32, ptr %11, align 4, !tbaa !88
  %13 = getelementptr inbounds nuw i8, ptr %3, i64 104
  %14 = load i32, ptr %13, align 8, !tbaa !85
  %15 = sitofp i32 %12 to float
  %16 = fmul nsz float %4, %15
  %17 = fptosi float %16 to i32
  %18 = getelementptr inbounds nuw i8, ptr %10, i64 40
  %19 = load i32, ptr %18, align 8, !tbaa !77
  %20 = icmp sgt i32 %19, 0
  br i1 %20, label %.lr.ph, label %._crit_edge

.lr.ph:                                           ; preds = %8
  %21 = getelementptr inbounds nuw i8, ptr %3, i64 64
  %22 = icmp slt i32 %5, %6
  %23 = getelementptr inbounds nuw i8, ptr %1, i64 64
  %24 = getelementptr inbounds nuw i8, ptr %2, i64 64
  %25 = icmp sgt i32 %14, 0
  %or.cond = select i1 %22, i1 %25, i1 false
  br i1 %or.cond, label %.lr.ph56.us.us.preheader, label %._crit_edge

.lr.ph56.us.us.preheader:                         ; preds = %.lr.ph
  %26 = sext i32 %5 to i64
  %27 = sext i32 %17 to i64
  %28 = sext i32 %12 to i64
  %wide.trip.count74 = zext nneg i32 %19 to i64
  %wide.trip.count69 = sext i32 %6 to i64
  %wide.trip.count = zext nneg i32 %14 to i64
  br label %.lr.ph56.us.us

.lr.ph56.us.us:                                   ; preds = %.lr.ph56.us.us.preheader, %._crit_edge57.split.us.us.us
  %indvars.iv71 = phi i64 [ 0, %.lr.ph56.us.us.preheader ], [ %indvars.iv.next72, %._crit_edge57.split.us.us.us ]
  %29 = getelementptr inbounds nuw [8 x ptr], ptr %3, i64 0, i64 %indvars.iv71
  %30 = load ptr, ptr %29, align 8, !tbaa !89
  %31 = getelementptr inbounds nuw [8 x i32], ptr %21, i64 0, i64 %indvars.iv71
  %32 = load i32, ptr %31, align 4, !tbaa !31
  %33 = mul nsw i32 %32, %5
  %34 = sext i32 %33 to i64
  %35 = getelementptr inbounds i8, ptr %30, i64 %34
  %36 = getelementptr inbounds nuw [8 x ptr], ptr %1, i64 0, i64 %indvars.iv71
  %37 = load ptr, ptr %36, align 8, !tbaa !89
  %38 = getelementptr inbounds nuw [8 x i32], ptr %23, i64 0, i64 %indvars.iv71
  %39 = load i32, ptr %38, align 4, !tbaa !31
  %40 = getelementptr inbounds nuw [8 x ptr], ptr %2, i64 0, i64 %indvars.iv71
  %41 = load ptr, ptr %40, align 8, !tbaa !89
  %42 = getelementptr inbounds nuw [8 x i32], ptr %24, i64 0, i64 %indvars.iv71
  %43 = load i32, ptr %42, align 4, !tbaa !31
  %44 = sdiv i32 %32, 2
  %45 = sext i32 %44 to i64
  %46 = sext i32 %43 to i64
  br label %.lr.ph.us.us.us

.lr.ph.us.us.us:                                  ; preds = %._crit_edge.us.us.us, %.lr.ph56.us.us
  %indvars.iv66 = phi i64 [ %indvars.iv.next67, %._crit_edge.us.us.us ], [ %26, %.lr.ph56.us.us ]
  %.04854.us.us.us = phi ptr [ %61, %._crit_edge.us.us.us ], [ %35, %.lr.ph56.us.us ]
  %47 = add nsw i64 %indvars.iv66, %27
  %48 = trunc nsw i64 %47 to i32
  %49 = srem i32 %48, %12
  %isneg.us.us.us = icmp slt i64 %47, 0
  %50 = select i1 %isneg.us.us.us, i32 %12, i32 0
  %51 = add nsw i32 %49, %50
  %52 = mul nsw i32 %39, %51
  %53 = sext i32 %52 to i64
  %54 = getelementptr inbounds i8, ptr %37, i64 %53
  %55 = mul nsw i64 %indvars.iv66, %46
  %56 = getelementptr inbounds i8, ptr %41, i64 %55
  %57 = icmp sgt i64 %47, -1
  %58 = icmp slt i64 %47, %28
  %or.cond.us.us.us = select i1 %57, i1 %58, i1 false
  %.in.in.v.us.us.us = select i1 %or.cond.us.us.us, ptr %56, ptr %54
  br label %59

59:                                               ; preds = %59, %.lr.ph.us.us.us
  %indvars.iv = phi i64 [ %indvars.iv.next, %59 ], [ 0, %.lr.ph.us.us.us ]
  %.in.in.us.us.us = getelementptr inbounds nuw i16, ptr %.in.in.v.us.us.us, i64 %indvars.iv
  %.in51.us.us.us = load i16, ptr %.in.in.us.us.us, align 2, !tbaa !79
  %60 = getelementptr inbounds nuw i16, ptr %.04854.us.us.us, i64 %indvars.iv
  store i16 %.in51.us.us.us, ptr %60, align 2, !tbaa !79
  %indvars.iv.next = add nuw nsw i64 %indvars.iv, 1
  %exitcond.not = icmp eq i64 %indvars.iv.next, %wide.trip.count
  br i1 %exitcond.not, label %._crit_edge.us.us.us, label %59, !llvm.loop !451

._crit_edge.us.us.us:                             ; preds = %59
  %61 = getelementptr inbounds i16, ptr %.04854.us.us.us, i64 %45
  %indvars.iv.next67 = add nsw i64 %indvars.iv66, 1
  %exitcond70.not = icmp eq i64 %indvars.iv.next67, %wide.trip.count69
  br i1 %exitcond70.not, label %._crit_edge57.split.us.us.us, label %.lr.ph.us.us.us, !llvm.loop !452

._crit_edge57.split.us.us.us:                     ; preds = %._crit_edge.us.us.us
  %indvars.iv.next72 = add nuw nsw i64 %indvars.iv71, 1
  %exitcond75.not = icmp eq i64 %indvars.iv.next72, %wide.trip.count74
  br i1 %exitcond75.not, label %._crit_edge, label %.lr.ph56.us.us, !llvm.loop !453

._crit_edge:                                      ; preds = %._crit_edge57.split.us.us.us, %.lr.ph, %8
  ret void
}